target datalayout = "e-m:e-p270:32:32-p271:32:32-p272:64:64-i64:64-i128:128-f80:128-n8:16:32:64-S128"
target triple = "x86_64-pc-linux-gnu"

%struct.quicklistNode = type { ptr, ptr, ptr, i64, i32 }
%struct.quicklistLZF = type { i64, [0 x i8] }

@.str = private unnamed_addr constant [25 x i8] c"node->prev && node->next\00", align 1
@.str.1 = private unnamed_addr constant [12 x i8] c"quicklist.c\00", align 1

; Function Attrs: nounwind uwtable
define dso_local i32 @__quicklistCompressNode(ptr noundef %0) #0 {
  %2 = alloca i32, align 4
  %3 = alloca ptr, align 8
  %4 = alloca ptr, align 8
  %5 = alloca i32, align 4
  store ptr %0, ptr %3, align 8, !tbaa !12
  %6 = load ptr, ptr %3, align 8, !tbaa !12
  %7 = getelementptr inbounds nuw %struct.quicklistNode, ptr %6, i32 0, i32 4
  %8 = load i32, ptr %7, align 8
  %9 = lshr i32 %8, 22
  %10 = and i32 %9, 1
  %11 = icmp ne i32 %10, 0
  br i1 %11, label %12, label %13

12:                                               ; preds = %1
  store i32 0, ptr %2, align 4
  br label %97

13:                                               ; preds = %1
  %14 = load ptr, ptr %3, align 8, !tbaa !12
  %15 = getelementptr inbounds nuw %struct.quicklistNode, ptr %14, i32 0, i32 0
  %16 = load ptr, ptr %15, align 8, !tbaa !20
  %17 = icmp ne ptr %16, null
  br i1 %17, label %18, label %23

18:                                               ; preds = %13
  %19 = load ptr, ptr %3, align 8, !tbaa !12
  %20 = getelementptr inbounds nuw %struct.quicklistNode, ptr %19, i32 0, i32 1
  %21 = load ptr, ptr %20, align 8, !tbaa !21
  %22 = icmp ne ptr %21, null
  br label %23

23:                                               ; preds = %18, %13
  %24 = phi i1 [ false, %13 ], [ %22, %18 ]
  %25 = xor i1 %24, true
  %26 = xor i1 %25, true
  %27 = zext i1 %26 to i32
  %28 = sext i32 %27 to i64
  %29 = call i64 @llvm.expect.i64(i64 %28, i64 1)
  %30 = icmp ne i64 %29, 0
  br i1 %30, label %31, label %32

31:                                               ; preds = %23
  br label %34

32:                                               ; preds = %23
  call void @_serverAssert(ptr noundef @.str, ptr noundef @.str.1, i32 noundef 222)
  call void @abort() #12
  unreachable

33:                                               ; No predecessors!
  br label %34

34:                                               ; preds = %33, %31
  %35 = load ptr, ptr %3, align 8, !tbaa !12
  %36 = getelementptr inbounds nuw %struct.quicklistNode, ptr %35, i32 0, i32 4
  %37 = load i32, ptr %36, align 8
  %38 = and i32 %37, -1048577
  %39 = or i32 %38, 0
  store i32 %39, ptr %36, align 8
  %40 = load ptr, ptr %3, align 8, !tbaa !12
  %41 = getelementptr inbounds nuw %struct.quicklistNode, ptr %40, i32 0, i32 3
  %42 = load i64, ptr %41, align 8, !tbaa !19
  %43 = icmp ult i64 %42, 48
  br i1 %43, label %44, label %45

44:                                               ; preds = %34
  store i32 0, ptr %2, align 4
  br label %97

45:                                               ; preds = %34
  call void @llvm.lifetime.start.p0(i64 8, ptr %4) #10
  %46 = load ptr, ptr %3, align 8, !tbaa !12
  %47 = getelementptr inbounds nuw %struct.quicklistNode, ptr %46, i32 0, i32 3
  %48 = load i64, ptr %47, align 8, !tbaa !19
  %49 = add i64 8, %48
  %50 = call noalias ptr @zmalloc(i64 noundef %49) #11
  store ptr %50, ptr %4, align 8, !tbaa !27
  %51 = load ptr, ptr %3, align 8, !tbaa !12
  %52 = getelementptr inbounds nuw %struct.quicklistNode, ptr %51, i32 0, i32 2
  %53 = load ptr, ptr %52, align 8, !tbaa !16
  %54 = load ptr, ptr %3, align 8, !tbaa !12
  %55 = getelementptr inbounds nuw %struct.quicklistNode, ptr %54, i32 0, i32 3
  %56 = load i64, ptr %55, align 8, !tbaa !19
  %57 = load ptr, ptr %4, align 8, !tbaa !27
  %58 = getelementptr inbounds nuw %struct.quicklistLZF, ptr %57, i32 0, i32 1
  %59 = getelementptr inbounds [0 x i8], ptr %58, i64 0, i64 0
  %60 = load ptr, ptr %3, align 8, !tbaa !12
  %61 = getelementptr inbounds nuw %struct.quicklistNode, ptr %60, i32 0, i32 3
  %62 = load i64, ptr %61, align 8, !tbaa !19
  %63 = call i64 @lzf_compress(ptr noundef %53, i64 noundef %56, ptr noundef %59, i64 noundef %62)
  %64 = load ptr, ptr %4, align 8, !tbaa !27
  %65 = getelementptr inbounds nuw %struct.quicklistLZF, ptr %64, i32 0, i32 0
  store i64 %63, ptr %65, align 8, !tbaa !5
  %66 = icmp eq i64 %63, 0
  br i1 %66, label %76, label %67

67:                                               ; preds = %45
  %68 = load ptr, ptr %4, align 8, !tbaa !27
  %69 = getelementptr inbounds nuw %struct.quicklistLZF, ptr %68, i32 0, i32 0
  %70 = load i64, ptr %69, align 8, !tbaa !5
  %71 = add i64 %70, 8
  %72 = load ptr, ptr %3, align 8, !tbaa !12
  %73 = getelementptr inbounds nuw %struct.quicklistNode, ptr %72, i32 0, i32 3
  %74 = load i64, ptr %73, align 8, !tbaa !19
  %75 = icmp uge i64 %71, %74
  br i1 %75, label %76, label %78

76:                                               ; preds = %67, %45
  %77 = load ptr, ptr %4, align 8, !tbaa !27
  call void @zfree(ptr noundef %77)
  store i32 0, ptr %2, align 4
  store i32 1, ptr %5, align 4
  br label %96

78:                                               ; preds = %67
  %79 = load ptr, ptr %4, align 8, !tbaa !27
  %80 = load ptr, ptr %4, align 8, !tbaa !27
  %81 = getelementptr inbounds nuw %struct.quicklistLZF, ptr %80, i32 0, i32 0
  %82 = load i64, ptr %81, align 8, !tbaa !5
  %83 = add i64 8, %82
  %84 = call ptr @zrealloc(ptr noundef %79, i64 noundef %83) #13
  store ptr %84, ptr %4, align 8, !tbaa !27
  %85 = load ptr, ptr %3, align 8, !tbaa !12
  %86 = getelementptr inbounds nuw %struct.quicklistNode, ptr %85, i32 0, i32 2
  %87 = load ptr, ptr %86, align 8, !tbaa !16
  call void @zfree(ptr noundef %87)
  %88 = load ptr, ptr %4, align 8, !tbaa !27
  %89 = load ptr, ptr %3, align 8, !tbaa !12
  %90 = getelementptr inbounds nuw %struct.quicklistNode, ptr %89, i32 0, i32 2
  store ptr %88, ptr %90, align 8, !tbaa !16
  %91 = load ptr, ptr %3, align 8, !tbaa !12
  %92 = getelementptr inbounds nuw %struct.quicklistNode, ptr %91, i32 0, i32 4
  %93 = load i32, ptr %92, align 8
  %94 = and i32 %93, -196609
  %95 = or i32 %94, 131072
  store i32 %95, ptr %92, align 8
  store i32 1, ptr %2, align 4
  store i32 1, ptr %5, align 4
  br label %96

96:                                               ; preds = %78, %76
  call void @llvm.lifetime.end.p0(i64 8, ptr %4) #10
  br label %97

97:                                               ; preds = %96, %44, %12
  %98 = load i32, ptr %2, align 4
  ret i32 %98
}