; Function Attrs: nounwind uwtable
define dso_local range(i32 0, 2) i32 @__quicklistCompressNode(ptr noundef captures(none) %0) local_unnamed_addr #1 {
  %2 = getelementptr inbounds nuw i8, ptr %0, i64 32
  %3 = load i32, ptr %2, align 8
  %4 = and i32 %3, 4194304
  %.not = icmp eq i32 %4, 0
  br i1 %.not, label %5, label %34

5:                                                ; preds = %1
  %6 = load ptr, ptr %0, align 8, !tbaa !23
  %.not23 = icmp eq ptr %6, null
  br i1 %.not23, label %.critedge, label %7, !prof !24

7:                                                ; preds = %5
  %8 = getelementptr inbounds nuw i8, ptr %0, i64 8
  %9 = load ptr, ptr %8, align 8, !tbaa !17
  %.not25 = icmp eq ptr %9, null
  br i1 %.not25, label %.critedge, label %10, !prof !24

.critedge:                                        ; preds = %5, %7
  tail call void @_serverAssert(ptr noundef nonnull @.str, ptr noundef nonnull @.str.1, i32 noundef 222) #23
  tail call void @abort() #24
  unreachable

10:                                               ; preds = %7
  %11 = and i32 %3, -5242881
  store i32 %11, ptr %2, align 8
  %12 = getelementptr inbounds nuw i8, ptr %0, i64 24
  %13 = load i64, ptr %12, align 8, !tbaa !15
  %14 = icmp ult i64 %13, 48
  br i1 %14, label %34, label %15

15:                                               ; preds = %10
  %16 = add i64 %13, 8
  %17 = tail call noalias ptr @zmalloc(i64 noundef %16) #22
  %18 = getelementptr inbounds nuw i8, ptr %0, i64 16
  %19 = load ptr, ptr %18, align 8, !tbaa !9
  %20 = load i64, ptr %12, align 8, !tbaa !15
  %21 = getelementptr inbounds nuw i8, ptr %17, i64 8
  %22 = tail call i64 @lzf_compress(ptr noundef %19, i64 noundef %20, ptr noundef nonnull %21, i64 noundef %20) #23
  store i64 %22, ptr %17, align 8, !tbaa !5
  %23 = icmp eq i64 %22, 0
  br i1 %23, label %27, label %24

24:                                               ; preds = %15
  %25 = add i64 %22, 8
  %26 = load i64, ptr %12, align 8, !tbaa !15
  %.not24 = icmp ult i64 %25, %26
  br i1 %.not24, label %28, label %27

27:                                               ; preds = %24, %15
  tail call void @zfree(ptr noundef nonnull %17) #23
  br label %34

28:                                               ; preds = %24
  %29 = tail call ptr @zrealloc(ptr noundef nonnull %17, i64 noundef %25) #25
  %30 = load ptr, ptr %18, align 8, !tbaa !9
  tail call void @zfree(ptr noundef %30) #23
  store ptr %29, ptr %18, align 8, !tbaa !9
  %31 = load i32, ptr %2, align 8
  %32 = and i32 %31, -196609
  %33 = or disjoint i32 %32, 131072
  store i32 %33, ptr %2, align 8
  br label %34

34:                                               ; preds = %27, %28, %10, %1
  %.0 = phi i32 [ 0, %1 ], [ 0, %10 ], [ 0, %27 ], [ 1, %28 ]
  ret i32 %.0
}